target datalayout = "e-m:e-p270:32:32-p271:32:32-p272:64:64-i64:64-i128:128-f80:128-n8:16:32:64-S128"
target triple = "x86_64-pc-linux-gnu"

%"class.ZXing::ByteArray" = type { %"class.std::vector" }
%"class.std::vector" = type { %"struct.std::_Vector_base" }
%"struct.std::_Vector_base" = type { %"struct.std::_Vector_base<unsigned char, std::allocator<unsigned char>>::_Vector_impl" }
%"struct.std::_Vector_base<unsigned char, std::allocator<unsigned char>>::_Vector_impl" = type { %"struct.std::_Vector_base<unsigned char, std::allocator<unsigned char>>::_Vector_impl_data" }
%"struct.std::_Vector_base<unsigned char, std::allocator<unsigned char>>::_Vector_impl_data" = type { ptr, ptr, ptr }
%"class.ZXing::DataMatrix::EncoderContext" = type <{ %"class.std::__cxx11::basic_string.3", i32, i32, i32, i32, i32, [4 x i8], %"class.ZXing::ByteArray", i32, i32, ptr, i32, [4 x i8] }>
%"class.std::__cxx11::basic_string.3" = type { %"struct.std::__cxx11::basic_string<char>::_Alloc_hider", i64, %union.anon.7 }
%"struct.std::__cxx11::basic_string<char>::_Alloc_hider" = type { ptr }
%union.anon.7 = type { i64, [8 x i8] }
%"class.std::function" = type { %"class.std::_Function_base", ptr }
%"class.std::_Function_base" = type { %"union.std::_Any_data", ptr }
%"union.std::_Any_data" = type { %"union.std::_Nocopy_types" }
%"union.std::_Nocopy_types" = type { { i64, i64 } }

@.str.7 = private unnamed_addr constant [68 x i8] c"basic_string::at: __n (which is %zu) >= this->size() (which is %zu)\00", align 1

; Function Attrs: mustprogress nounwind optsize uwtable
define linkonce_odr noundef ptr @_ZNKSt7__cxx1112basic_stringIcSt11char_traitsIcESaIcEE7_M_dataEv(ptr noundef nonnull align 8 dereferenceable(32) %0) #2 comdat align 2 {
  %2 = alloca ptr, align 8
  store ptr %0, ptr %2, align 8, !tbaa !26
  %3 = load ptr, ptr %2, align 8
  %4 = getelementptr inbounds nuw %"class.std::__cxx11::basic_string.3", ptr %3, i32 0, i32 0
  %5 = getelementptr inbounds nuw %"struct.std::__cxx11::basic_string<char>::_Alloc_hider", ptr %4, i32 0, i32 0
  %6 = load ptr, ptr %5, align 8, !tbaa !69
  ret ptr %6
}

; Function Attrs: mustprogress nounwind optsize uwtable
define linkonce_odr noundef zeroext i1 @_ZNKSt14_Function_base8_M_emptyEv(ptr noundef nonnull align 8 dereferenceable(24) %0) #2 comdat align 2 {
  %2 = alloca ptr, align 8
  store ptr %0, ptr %2, align 8, !tbaa !147
  %3 = load ptr, ptr %2, align 8
  %4 = getelementptr inbounds nuw %"class.std::_Function_base", ptr %3, i32 0, i32 1
  %5 = load ptr, ptr %4, align 8, !tbaa !146
  %6 = icmp ne ptr %5, null
  %7 = xor i1 %6, true
  ret i1 %7
}

; Function Attrs: mustprogress optsize uwtable
define linkonce_odr noundef nonnull align 1 dereferenceable(1) ptr @_ZNKSt7__cxx1112basic_stringIcSt11char_traitsIcESaIcEE2atEm(ptr noundef nonnull align 8 dereferenceable(32) %0, i64 noundef %1) #0 comdat align 2 {
  %3 = alloca ptr, align 8
  %4 = alloca i64, align 8
  store ptr %0, ptr %3, align 8, !tbaa !26
  store i64 %1, ptr %4, align 8, !tbaa !15
  %5 = load ptr, ptr %3, align 8
  %6 = load i64, ptr %4, align 8, !tbaa !15
  %7 = call noundef i64 @_ZNKSt7__cxx1112basic_stringIcSt11char_traitsIcESaIcEE4sizeEv(ptr noundef nonnull align 8 dereferenceable(32) %5) #21
  %8 = icmp uge i64 %6, %7
  br i1 %8, label %9, label %12

9:                                                ; preds = %2
  %10 = load i64, ptr %4, align 8, !tbaa !15
  %11 = call noundef i64 @_ZNKSt7__cxx1112basic_stringIcSt11char_traitsIcESaIcEE4sizeEv(ptr noundef nonnull align 8 dereferenceable(32) %5) #21
  call void (ptr, ...) @_ZSt24__throw_out_of_range_fmtPKcz(ptr noundef @.str.7, i64 noundef %10, i64 noundef %11) #24
  unreachable

12:                                               ; preds = %2
  %13 = call noundef ptr @_ZNKSt7__cxx1112basic_stringIcSt11char_traitsIcESaIcEE7_M_dataEv(ptr noundef nonnull align 8 dereferenceable(32) %5) #19
  %14 = load i64, ptr %4, align 8, !tbaa !15
  %15 = getelementptr inbounds nuw i8, ptr %13, i64 %14
  ret ptr %15
}

; Function Attrs: mustprogress nounwind optsize uwtable
define linkonce_odr void @_ZN5ZXing10DataMatrix14EncoderContext15resetSymbolInfoEv(ptr noundef nonnull align 8 dereferenceable(100) %0) #2 comdat align 2 {
  %2 = alloca ptr, align 8
  store ptr %0, ptr %2, align 8, !tbaa !24
  %3 = load ptr, ptr %2, align 8
  %4 = getelementptr inbounds nuw %"class.ZXing::DataMatrix::EncoderContext", ptr %3, i32 0, i32 10
  store ptr null, ptr %4, align 8, !tbaa !44
  ret void
}

; Function Attrs: mustprogress optsize uwtable
define linkonce_odr noundef i32 @_ZNKSt8functionIFiiRNSt7__cxx1112basic_stringIcSt11char_traitsIcESaIcEEEEEclEiS6_(ptr noundef nonnull align 8 dereferenceable(32) %0, i32 noundef %1, ptr noundef nonnull align 8 dereferenceable(32) %2) #0 comdat align 2 {
  %4 = alloca ptr, align 8
  %5 = alloca i32, align 4
  %6 = alloca ptr, align 8
  store ptr %0, ptr %4, align 8, !tbaa !139
  store i32 %1, ptr %5, align 4, !tbaa !12
  store ptr %2, ptr %6, align 8, !tbaa !26
  %7 = load ptr, ptr %4, align 8
  %8 = call noundef zeroext i1 @_ZNKSt14_Function_base8_M_emptyEv(ptr noundef nonnull align 8 dereferenceable(24) %7) #19
  br i1 %8, label %9, label %10

9:                                                ; preds = %3
  call void @_ZSt25__throw_bad_function_callv() #24
  unreachable

10:                                               ; preds = %3
  %11 = getelementptr inbounds nuw %"class.std::function", ptr %7, i32 0, i32 1
  %12 = load ptr, ptr %11, align 8, !tbaa !143
  %13 = getelementptr inbounds nuw %"class.std::_Function_base", ptr %7, i32 0, i32 0
  %14 = load ptr, ptr %6, align 8, !tbaa !26
  %15 = call noundef i32 %12(ptr noundef nonnull align 8 dereferenceable(16) %13, ptr noundef nonnull align 4 dereferenceable(4) %5, ptr noundef nonnull align 8 dereferenceable(32) %14) #19
  ret i32 %15
}

; Function Attrs: mustprogress optsize uwtable
define linkonce_odr noundef i32 @_ZNK5ZXing10DataMatrix14EncoderContext11currentCharEv(ptr noundef nonnull align 8 dereferenceable(100) %0) #0 comdat align 2 {
  %2 = alloca ptr, align 8
  store ptr %0, ptr %2, align 8, !tbaa !24
  %3 = load ptr, ptr %2, align 8
  %4 = getelementptr inbounds nuw %"class.ZXing::DataMatrix::EncoderContext", ptr %3, i32 0, i32 0
  %5 = getelementptr inbounds nuw %"class.ZXing::DataMatrix::EncoderContext", ptr %3, i32 0, i32 8
  %6 = load i32, ptr %5, align 8, !tbaa !42
  %7 = sext i32 %6 to i64
  %8 = call noundef nonnull align 1 dereferenceable(1) ptr @_ZNKSt7__cxx1112basic_stringIcSt11char_traitsIcESaIcEE2atEm(ptr noundef nonnull align 8 dereferenceable(32) %4, i64 noundef %7) #19
  %9 = load i8, ptr %8, align 1, !tbaa !46
  %10 = sext i8 %9 to i32
  %11 = and i32 %10, 255
  ret i32 %11
}

; Function Attrs: mustprogress nounwind optsize uwtable
define linkonce_odr void @_ZN5ZXing10DataMatrix14EncoderContext13setCurrentPosEi(ptr noundef nonnull align 8 dereferenceable(100) %0, i32 noundef %1) #2 comdat align 2 {
  %3 = alloca ptr, align 8
  %4 = alloca i32, align 4
  store ptr %0, ptr %3, align 8, !tbaa !24
  store i32 %1, ptr %4, align 4, !tbaa !12
  %5 = load ptr, ptr %3, align 8
  %6 = load i32, ptr %4, align 4, !tbaa !12
  %7 = getelementptr inbounds nuw %"class.ZXing::DataMatrix::EncoderContext", ptr %5, i32 0, i32 8
  store i32 %6, ptr %7, align 8, !tbaa !42
  ret void
}

; Function Attrs: mustprogress nounwind optsize uwtable
define linkonce_odr noundef i32 @_ZNK5ZXing10DataMatrix14EncoderContext10currentPosEv(ptr noundef nonnull align 8 dereferenceable(100) %0) #2 comdat align 2 {
  %2 = alloca ptr, align 8
  store ptr %0, ptr %2, align 8, !tbaa !24
  %3 = load ptr, ptr %2, align 8
  %4 = getelementptr inbounds nuw %"class.ZXing::DataMatrix::EncoderContext", ptr %3, i32 0, i32 8
  %5 = load i32, ptr %4, align 8, !tbaa !42
  ret i32 %5
}

; Function Attrs: mustprogress optsize uwtable
define linkonce_odr void @_ZNSt7__cxx1112basic_stringIcSt11char_traitsIcESaIcEE6resizeEm(ptr noundef nonnull align 8 dereferenceable(32) %0, i64 noundef %1) #0 comdat align 2 {
  %3 = alloca ptr, align 8
  %4 = alloca i64, align 8
  store ptr %0, ptr %3, align 8, !tbaa !26
  store i64 %1, ptr %4, align 8, !tbaa !15
  %5 = load ptr, ptr %3, align 8
  %6 = load i64, ptr %4, align 8, !tbaa !15
  call void @_ZNSt7__cxx1112basic_stringIcSt11char_traitsIcESaIcEE6resizeEmc(ptr noundef nonnull align 8 dereferenceable(32) %5, i64 noundef %6, i8 noundef signext 0) #19
  ret void
}

; Function Attrs: mustprogress nounwind optsize uwtable
define linkonce_odr noundef i64 @_ZNKSt7__cxx1112basic_stringIcSt11char_traitsIcESaIcEE4sizeEv(ptr noundef nonnull align 8 dereferenceable(32) %0) #2 comdat align 2 {
  %2 = alloca ptr, align 8
  store ptr %0, ptr %2, align 8, !tbaa !26
  %3 = load ptr, ptr %2, align 8
  %4 = getelementptr inbounds nuw %"class.std::__cxx11::basic_string.3", ptr %3, i32 0, i32 1
  %5 = load i64, ptr %4, align 8, !tbaa !68
  ret i64 %5
}

; Function Attrs: mustprogress optsize uwtable
define internal noundef i32 @_ZN5ZXing10DataMatrix10C40EncoderL21BacktrackOneCharacterERNS0_14EncoderContextERNSt7__cxx1112basic_stringIcSt11char_traitsIcESaIcEEESA_iSt8functionIFiiSA_EE(ptr noundef nonnull align 8 dereferenceable(100) %0, ptr noundef nonnull align 8 dereferenceable(32) %1, ptr noundef nonnull align 8 dereferenceable(32) %2, i32 noundef %3, ptr noundef %4) #0 {
  %6 = alloca ptr, align 8
  %7 = alloca ptr, align 8
  %8 = alloca ptr, align 8
  %9 = alloca i32, align 4
  %10 = alloca ptr, align 8
  %11 = alloca i32, align 4
  store ptr %0, ptr %6, align 8, !tbaa !24
  store ptr %1, ptr %7, align 8, !tbaa !26
  store ptr %2, ptr %8, align 8, !tbaa !26
  store i32 %3, ptr %9, align 4, !tbaa !12
  store ptr %4, ptr %10, align 8, !tbaa !139
  %12 = load ptr, ptr %7, align 8, !tbaa !26
  %13 = load ptr, ptr %7, align 8, !tbaa !26
  %14 = call noundef i64 @_ZNKSt7__cxx1112basic_stringIcSt11char_traitsIcESaIcEE4sizeEv(ptr noundef nonnull align 8 dereferenceable(32) %13) #21
  %15 = load i32, ptr %9, align 4, !tbaa !12
  %16 = sext i32 %15 to i64
  %17 = sub i64 %14, %16
  call void @_ZNSt7__cxx1112basic_stringIcSt11char_traitsIcESaIcEE6resizeEm(ptr noundef nonnull align 8 dereferenceable(32) %12, i64 noundef %17) #19
  %18 = load ptr, ptr %6, align 8, !tbaa !24
  %19 = load ptr, ptr %6, align 8, !tbaa !24
  %20 = call noundef i32 @_ZNK5ZXing10DataMatrix14EncoderContext10currentPosEv(ptr noundef nonnull align 8 dereferenceable(100) %19) #19
  %21 = sub nsw i32 %20, 1
  call void @_ZN5ZXing10DataMatrix14EncoderContext13setCurrentPosEi(ptr noundef nonnull align 8 dereferenceable(100) %18, i32 noundef %21) #19
  call void @llvm.lifetime.start.p0(i64 4, ptr %11) #20
  %22 = load ptr, ptr %6, align 8, !tbaa !24
  %23 = call noundef i32 @_ZNK5ZXing10DataMatrix14EncoderContext11currentCharEv(ptr noundef nonnull align 8 dereferenceable(100) %22) #19
  store i32 %23, ptr %11, align 4, !tbaa !12
  %24 = load i32, ptr %11, align 4, !tbaa !12
  %25 = load ptr, ptr %8, align 8, !tbaa !26
  %26 = call noundef i32 @_ZNKSt8functionIFiiRNSt7__cxx1112basic_stringIcSt11char_traitsIcESaIcEEEEEclEiS6_(ptr noundef nonnull align 8 dereferenceable(32) %4, i32 noundef %24, ptr noundef nonnull align 8 dereferenceable(32) %25) #19
  store i32 %26, ptr %9, align 4, !tbaa !12
  %27 = load ptr, ptr %6, align 8, !tbaa !24
  call void @_ZN5ZXing10DataMatrix14EncoderContext15resetSymbolInfoEv(ptr noundef nonnull align 8 dereferenceable(100) %27) #19
  %28 = load i32, ptr %9, align 4, !tbaa !12
  call void @llvm.lifetime.end.p0(i64 4, ptr %11) #20
  ret i32 %28
}