; Function Attrs: mustprogress optsize uwtable
define internal fastcc noundef i32 @_ZN5ZXing10DataMatrix10C40EncoderL21BacktrackOneCharacterERNS0_14EncoderContextERNSt7__cxx1112basic_stringIcSt11char_traitsIcESaIcEEESA_iSt8functionIFiiSA_EE(ptr noundef nonnull align 8 captures(none) dereferenceable(100) %0, ptr noundef nonnull align 8 dereferenceable(32) %1, ptr noundef nonnull align 8 dereferenceable(32) %2, i32 noundef %3, ptr noundef nonnull %4) unnamed_addr #0 {
  %6 = alloca i32, align 4
  %7 = getelementptr inbounds nuw i8, ptr %1, i64 8
  %8 = load i64, ptr %7, align 8, !tbaa !11
  %9 = sext i32 %3 to i64
  %10 = sub i64 %8, %9
  tail call void @_ZNSt7__cxx1112basic_stringIcSt11char_traitsIcESaIcEE6resizeEmc(ptr noundef nonnull align 8 dereferenceable(32) %1, i64 noundef %10, i8 noundef signext 0) #21
  %11 = getelementptr inbounds nuw i8, ptr %0, i64 80
  %12 = load i32, ptr %11, align 8, !tbaa !33
  %13 = add nsw i32 %12, -1
  store i32 %13, ptr %11, align 8, !tbaa !33
  %14 = sext i32 %13 to i64
  %15 = getelementptr inbounds nuw i8, ptr %0, i64 8
  %16 = load i64, ptr %15, align 8, !tbaa !11
  %.not.i.i = icmp ugt i64 %16, %14
  br i1 %.not.i.i, label %_ZNK5ZXing10DataMatrix14EncoderContext11currentCharEv.exit, label %17

17:                                               ; preds = %5
  tail call void (ptr, ...) @_ZSt24__throw_out_of_range_fmtPKcz(ptr noundef nonnull @.str.7, i64 noundef %14, i64 noundef %16) #24
  unreachable

_ZNK5ZXing10DataMatrix14EncoderContext11currentCharEv.exit: ; preds = %5
  %18 = load ptr, ptr %0, align 8, !tbaa !3
  %19 = getelementptr inbounds nuw i8, ptr %18, i64 %14
  %20 = load i8, ptr %19, align 1, !tbaa !12
  %21 = zext i8 %20 to i32
  call void @llvm.lifetime.start.p0(i64 4, ptr nonnull %6)
  store i32 %21, ptr %6, align 4, !tbaa !65
  %22 = getelementptr inbounds nuw i8, ptr %4, i64 16
  %23 = load ptr, ptr %22, align 8, !tbaa !40
  %.not.i.i9 = icmp eq ptr %23, null
  br i1 %.not.i.i9, label %24, label %_ZNKSt8functionIFiiRNSt7__cxx1112basic_stringIcSt11char_traitsIcESaIcEEEEEclEiS6_.exit

24:                                               ; preds = %_ZNK5ZXing10DataMatrix14EncoderContext11currentCharEv.exit
  tail call void @_ZSt25__throw_bad_function_callv() #24
  unreachable

_ZNKSt8functionIFiiRNSt7__cxx1112basic_stringIcSt11char_traitsIcESaIcEEEEEclEiS6_.exit: ; preds = %_ZNK5ZXing10DataMatrix14EncoderContext11currentCharEv.exit
  %25 = getelementptr inbounds nuw i8, ptr %4, i64 24
  %26 = load ptr, ptr %25, align 8, !tbaa !37
  %27 = call noundef i32 %26(ptr noundef nonnull align 8 dereferenceable(32) %4, ptr noundef nonnull align 4 dereferenceable(4) %6, ptr noundef nonnull align 8 dereferenceable(32) %2) #21
  call void @llvm.lifetime.end.p0(i64 4, ptr nonnull %6)
  %28 = getelementptr inbounds nuw i8, ptr %0, i64 88
  store ptr null, ptr %28, align 8, !tbaa !56
  ret i32 %27
}